target datalayout = "e-m:e-p270:32:32-p271:32:32-p272:64:64-i64:64-i128:128-f80:128-n8:16:32:64-S128"
target triple = "x86_64-pc-linux-gnu"

@hf_giop_sequence_length = internal global i32 0, align 4
@hf_giop_string_length = internal global i32 0, align 4
@hf_giop_type_id = internal global i32 0, align 4
@ett_giop_ior = internal global i32 0, align 4
@.str.570 = private unnamed_addr constant [4 x i8] c"IOR\00", align 1

; Function Attrs: null_pointer_is_valid sspstrong uwtable
define i32 @get_CDR_ulong(ptr noundef %0, ptr noundef %1, i1 noundef zeroext %2, i32 noundef %3) #0 {
  %5 = alloca ptr, align 8
  %6 = alloca ptr, align 8
  %7 = alloca i8, align 1
  %8 = alloca i32, align 4
  %9 = alloca i32, align 4
  store ptr %0, ptr %5, align 8
  store ptr %1, ptr %6, align 8
  %10 = zext i1 %2 to i8
  store i8 %10, ptr %7, align 1
  store i32 %3, ptr %8, align 4
  call void @llvm.lifetime.start.p0(i64 4, ptr %9) #14
  br label %11

11:                                               ; preds = %18, %4
  %12 = load ptr, ptr %6, align 8
  %13 = load i32, ptr %12, align 4
  %14 = load i32, ptr %8, align 4
  %15 = add i32 %13, %14
  %16 = srem i32 %15, 4
  %17 = icmp ne i32 %16, 0
  br i1 %17, label %18, label %22

18:                                               ; preds = %11
  %19 = load ptr, ptr %6, align 8
  %20 = load i32, ptr %19, align 4
  %21 = add i32 %20, 1
  store i32 %21, ptr %19, align 4
  br label %11, !llvm.loop !10

22:                                               ; preds = %11
  %23 = load i8, ptr %7, align 1, !range !8, !noundef !9
  %24 = trunc i8 %23 to i1
  br i1 %24, label %25, label %30

25:                                               ; preds = %22
  %26 = load ptr, ptr %5, align 8
  %27 = load ptr, ptr %6, align 8
  %28 = load i32, ptr %27, align 4
  %29 = call i32 @tvb_get_ntohl(ptr noundef %26, i32 noundef %28)
  br label %35

30:                                               ; preds = %22
  %31 = load ptr, ptr %5, align 8
  %32 = load ptr, ptr %6, align 8
  %33 = load i32, ptr %32, align 4
  %34 = call i32 @tvb_get_letohl(ptr noundef %31, i32 noundef %33)
  br label %35

35:                                               ; preds = %30, %25
  %36 = phi i32 [ %29, %25 ], [ %34, %30 ]
  store i32 %36, ptr %9, align 4
  %37 = load ptr, ptr %6, align 8
  %38 = load i32, ptr %37, align 4
  %39 = add i32 %38, 4
  store i32 %39, ptr %37, align 4
  %40 = load i32, ptr %9, align 4
  call void @llvm.lifetime.end.p0(i64 4, ptr %9) #14
  ret i32 %40
}

; Function Attrs: null_pointer_is_valid sspstrong uwtable
define i32 @get_CDR_string(ptr noundef %0, ptr noundef %1, ptr noundef %2, i1 noundef zeroext %3, i32 noundef %4) #0 {
  %6 = alloca ptr, align 8
  %7 = alloca ptr, align 8
  %8 = alloca ptr, align 8
  %9 = alloca i8, align 1
  %10 = alloca i32, align 4
  %11 = alloca i32, align 4
  %12 = alloca i32, align 4
  store ptr %0, ptr %6, align 8
  store ptr %1, ptr %7, align 8
  store ptr %2, ptr %8, align 8
  %13 = zext i1 %3 to i8
  store i8 %13, ptr %9, align 1
  store i32 %4, ptr %10, align 4
  call void @llvm.lifetime.start.p0(i64 4, ptr %11) #14
  call void @llvm.lifetime.start.p0(i64 4, ptr %12) #14
  %14 = load ptr, ptr %6, align 8
  %15 = load ptr, ptr %8, align 8
  %16 = load i8, ptr %9, align 1, !range !8, !noundef !9
  %17 = trunc i8 %16 to i1
  %18 = load i32, ptr %10, align 4
  %19 = call i32 @get_CDR_ulong(ptr noundef %14, ptr noundef %15, i1 noundef zeroext %17, i32 noundef %18)
  store i32 %19, ptr %11, align 4
  %20 = load ptr, ptr %6, align 8
  %21 = load ptr, ptr %8, align 8
  %22 = load i32, ptr %21, align 4
  %23 = sub i32 %22, 4
  %24 = call i32 @tvb_reported_length_remaining(ptr noundef %20, i32 noundef %23)
  store i32 %24, ptr %12, align 4
  %25 = load i32, ptr %11, align 4
  %26 = load i32, ptr %12, align 4
  %27 = icmp ugt i32 %25, %26
  br i1 %27, label %28, label %30

28:                                               ; preds = %5
  %29 = load i32, ptr %12, align 4
  store i32 %29, ptr %11, align 4
  br label %30

30:                                               ; preds = %28, %5
  %31 = call ptr @wmem_packet_scope()
  %32 = load ptr, ptr %6, align 8
  %33 = load ptr, ptr %8, align 8
  %34 = load i32, ptr %33, align 4
  %35 = load i32, ptr %11, align 4
  %36 = call ptr @tvb_get_string_enc(ptr noundef %31, ptr noundef %32, i32 noundef %34, i32 noundef %35, i32 noundef 10)
  %37 = load ptr, ptr %7, align 8
  store ptr %36, ptr %37, align 8
  %38 = load i32, ptr %11, align 4
  %39 = load ptr, ptr %8, align 8
  %40 = load i32, ptr %39, align 4
  %41 = add i32 %40, %38
  store i32 %41, ptr %39, align 4
  %42 = load i32, ptr %11, align 4
  call void @llvm.lifetime.end.p0(i64 4, ptr %12) #14
  call void @llvm.lifetime.end.p0(i64 4, ptr %11) #14
  ret i32 %42
}

; Function Attrs: null_pointer_is_valid sspstrong uwtable
define internal void @decode_IOR(ptr noundef %0, ptr noundef %1, ptr noundef %2, ptr noundef %3, i32 noundef %4, i1 noundef zeroext %5) #0 {
  %7 = alloca ptr, align 8
  %8 = alloca ptr, align 8
  %9 = alloca ptr, align 8
  %10 = alloca ptr, align 8
  %11 = alloca i32, align 4
  %12 = alloca i8, align 1
  %13 = alloca i32, align 4
  %14 = alloca i32, align 4
  %15 = alloca ptr, align 8
  %16 = alloca ptr, align 8
  %17 = alloca i32, align 4
  store ptr %0, ptr %7, align 8
  store ptr %1, ptr %8, align 8
  store ptr %2, ptr %9, align 8
  store ptr %3, ptr %10, align 8
  store i32 %4, ptr %11, align 4
  %18 = zext i1 %5 to i8
  store i8 %18, ptr %12, align 1
  call void @llvm.lifetime.start.p0(i64 4, ptr %13) #14
  call void @llvm.lifetime.start.p0(i64 4, ptr %14) #14
  call void @llvm.lifetime.start.p0(i64 8, ptr %15) #14
  call void @llvm.lifetime.start.p0(i64 8, ptr %16) #14
  call void @llvm.lifetime.start.p0(i64 4, ptr %17) #14
  %19 = load ptr, ptr %9, align 8
  %20 = load ptr, ptr %7, align 8
  %21 = load ptr, ptr %10, align 8
  %22 = load i32, ptr %21, align 4
  %23 = load i32, ptr @ett_giop_ior, align 4
  %24 = call ptr @proto_tree_add_subtree(ptr noundef %19, ptr noundef %20, i32 noundef %22, i32 noundef -1, i32 noundef %23, ptr noundef null, ptr noundef @.str.570)
  store ptr %24, ptr %15, align 8
  %25 = load ptr, ptr %7, align 8
  %26 = load ptr, ptr %10, align 8
  %27 = load i8, ptr %12, align 1, !range !8, !noundef !9
  %28 = trunc i8 %27 to i1
  %29 = load i32, ptr %11, align 4
  %30 = call i32 @get_CDR_string(ptr noundef %25, ptr noundef %16, ptr noundef %26, i1 noundef zeroext %28, i32 noundef %29)
  store i32 %30, ptr %14, align 4
  %31 = load ptr, ptr %15, align 8
  %32 = load i32, ptr @hf_giop_string_length, align 4
  %33 = load ptr, ptr %7, align 8
  %34 = load ptr, ptr %10, align 8
  %35 = load i32, ptr %34, align 4
  %36 = load i32, ptr %14, align 4
  %37 = sub i32 %35, %36
  %38 = sub i32 %37, 4
  %39 = load i32, ptr %14, align 4
  %40 = call ptr @proto_tree_add_uint(ptr noundef %31, i32 noundef %32, ptr noundef %33, i32 noundef %38, i32 noundef 4, i32 noundef %39)
  %41 = load i32, ptr %14, align 4
  %42 = icmp ugt i32 %41, 0
  br i1 %42, label %43, label %54

43:                                               ; preds = %6
  %44 = load ptr, ptr %15, align 8
  %45 = load i32, ptr @hf_giop_type_id, align 4
  %46 = load ptr, ptr %7, align 8
  %47 = load ptr, ptr %10, align 8
  %48 = load i32, ptr %47, align 4
  %49 = load i32, ptr %14, align 4
  %50 = sub i32 %48, %49
  %51 = load i32, ptr %14, align 4
  %52 = load ptr, ptr %16, align 8
  %53 = call ptr @proto_tree_add_string(ptr noundef %44, i32 noundef %45, ptr noundef %46, i32 noundef %50, i32 noundef %51, ptr noundef %52)
  br label %54

54:                                               ; preds = %43, %6
  %55 = load ptr, ptr %7, align 8
  %56 = load ptr, ptr %10, align 8
  %57 = load i8, ptr %12, align 1, !range !8, !noundef !9
  %58 = trunc i8 %57 to i1
  %59 = load i32, ptr %11, align 4
  %60 = call i32 @get_CDR_ulong(ptr noundef %55, ptr noundef %56, i1 noundef zeroext %58, i32 noundef %59)
  store i32 %60, ptr %13, align 4
  %61 = load ptr, ptr %15, align 8
  %62 = load i32, ptr @hf_giop_sequence_length, align 4
  %63 = load ptr, ptr %7, align 8
  %64 = load ptr, ptr %10, align 8
  %65 = load i32, ptr %64, align 4
  %66 = sub i32 %65, 4
  %67 = load i32, ptr %13, align 4
  %68 = call ptr @proto_tree_add_uint(ptr noundef %61, i32 noundef %62, ptr noundef %63, i32 noundef %66, i32 noundef 4, i32 noundef %67)
  store i32 0, ptr %17, align 4
  br label %69

69:                                               ; preds = %82, %54
  %70 = load i32, ptr %17, align 4
  %71 = load i32, ptr %13, align 4
  %72 = icmp ult i32 %70, %71
  br i1 %72, label %73, label %85

73:                                               ; preds = %69
  %74 = load ptr, ptr %7, align 8
  %75 = load ptr, ptr %8, align 8
  %76 = load ptr, ptr %15, align 8
  %77 = load ptr, ptr %10, align 8
  %78 = load i32, ptr %11, align 4
  %79 = load i8, ptr %12, align 1, !range !8, !noundef !9
  %80 = trunc i8 %79 to i1
  %81 = load ptr, ptr %16, align 8
  call void @decode_TaggedProfile(ptr noundef %74, ptr noundef %75, ptr noundef %76, ptr noundef %77, i32 noundef %78, i1 noundef zeroext %80, ptr noundef %81)
  br label %82

82:                                               ; preds = %73
  %83 = load i32, ptr %17, align 4
  %84 = add i32 %83, 1
  store i32 %84, ptr %17, align 4
  br label %69, !llvm.loop !21

85:                                               ; preds = %69
  call void @llvm.lifetime.end.p0(i64 4, ptr %17) #14
  call void @llvm.lifetime.end.p0(i64 8, ptr %16) #14
  call void @llvm.lifetime.end.p0(i64 8, ptr %15) #14
  call void @llvm.lifetime.end.p0(i64 4, ptr %14) #14
  call void @llvm.lifetime.end.p0(i64 4, ptr %13) #14
  ret void
}