; Function Attrs: null_pointer_is_valid sspstrong uwtable
define internal fastcc void @decode_IOR(ptr noundef %0, ptr noundef %1, ptr noundef %2, ptr noundef captures(none) %3, i32 noundef %4, i1 noundef zeroext %5) unnamed_addr #0 {
  %7 = load i32, ptr %3, align 4
  %8 = load i32, ptr @ett_giop_ior, align 4
  %9 = tail call ptr @proto_tree_add_subtree(ptr noundef %2, ptr noundef %0, i32 noundef %7, i32 noundef -1, i32 noundef %8, ptr noundef null, ptr noundef nonnull @.str.570)
  %.promoted.i.i = load i32, ptr %3, align 4
  %10 = add i32 %.promoted.i.i, %4
  %11 = and i32 %10, 3
  %.not9.i.i = icmp eq i32 %11, 0
  br i1 %.not9.i.i, label %13, label %.lr.ph.preheader.i.i

.lr.ph.preheader.i.i:                             ; preds = %6
  %12 = or i32 %10, -4
  %sub.i = sub i32 %.promoted.i.i, %12
  store i32 %sub.i, ptr %3, align 4
  br label %13

13:                                               ; preds = %.lr.ph.preheader.i.i, %6
  %.lcssa.i.i = phi i32 [ %sub.i, %.lr.ph.preheader.i.i ], [ %.promoted.i.i, %6 ]
  br i1 %5, label %14, label %16

14:                                               ; preds = %13
  %15 = tail call i32 @tvb_get_ntohl(ptr noundef %0, i32 noundef %.lcssa.i.i)
  br label %get_CDR_string.exit

16:                                               ; preds = %13
  %17 = tail call i32 @tvb_get_letohl(ptr noundef %0, i32 noundef %.lcssa.i.i)
  br label %get_CDR_string.exit

get_CDR_string.exit:                              ; preds = %14, %16
  %18 = phi i32 [ %15, %14 ], [ %17, %16 ]
  %19 = load i32, ptr %3, align 4
  %20 = add i32 %19, 4
  store i32 %20, ptr %3, align 4
  %21 = tail call i32 @tvb_reported_length_remaining(ptr noundef %0, i32 noundef %19)
  %spec.select.i = tail call i32 @llvm.umin.i32(i32 %18, i32 %21)
  %22 = tail call ptr @wmem_packet_scope()
  %23 = load i32, ptr %3, align 4
  %24 = tail call ptr @tvb_get_string_enc(ptr noundef %22, ptr noundef %0, i32 noundef %23, i32 noundef %spec.select.i, i32 noundef 10)
  %25 = load i32, ptr %3, align 4
  %26 = add i32 %25, %spec.select.i
  store i32 %26, ptr %3, align 4
  %27 = load i32, ptr @hf_giop_string_length, align 4
  %28 = add i32 %25, -4
  %29 = tail call ptr @proto_tree_add_uint(ptr noundef %9, i32 noundef %27, ptr noundef %0, i32 noundef %28, i32 noundef 4, i32 noundef %spec.select.i)
  %.not = icmp eq i32 %spec.select.i, 0
  br i1 %.not, label %35, label %30

30:                                               ; preds = %get_CDR_string.exit
  %31 = load i32, ptr @hf_giop_type_id, align 4
  %32 = load i32, ptr %3, align 4
  %33 = sub i32 %32, %spec.select.i
  %34 = tail call ptr @proto_tree_add_string(ptr noundef %9, i32 noundef %31, ptr noundef %0, i32 noundef %33, i32 noundef %spec.select.i, ptr noundef %24)
  br label %35

35:                                               ; preds = %30, %get_CDR_string.exit
  %.promoted.i = load i32, ptr %3, align 4
  %36 = add i32 %.promoted.i, %4
  %37 = and i32 %36, 3
  %.not9.i = icmp eq i32 %37, 0
  br i1 %.not9.i, label %39, label %.lr.ph.preheader.i

.lr.ph.preheader.i:                               ; preds = %35
  %38 = or i32 %36, -4
  %sub = sub i32 %.promoted.i, %38
  store i32 %sub, ptr %3, align 4
  br label %39

39:                                               ; preds = %.lr.ph.preheader.i, %35
  %.lcssa.i = phi i32 [ %sub, %.lr.ph.preheader.i ], [ %.promoted.i, %35 ]
  br i1 %5, label %40, label %42

40:                                               ; preds = %39
  %41 = tail call i32 @tvb_get_ntohl(ptr noundef %0, i32 noundef %.lcssa.i)
  br label %get_CDR_ulong.exit

42:                                               ; preds = %39
  %43 = tail call i32 @tvb_get_letohl(ptr noundef %0, i32 noundef %.lcssa.i)
  br label %get_CDR_ulong.exit

get_CDR_ulong.exit:                               ; preds = %40, %42
  %44 = phi i32 [ %41, %40 ], [ %43, %42 ]
  %45 = load i32, ptr %3, align 4
  %46 = add i32 %45, 4
  store i32 %46, ptr %3, align 4
  %47 = load i32, ptr @hf_giop_sequence_length, align 4
  %48 = tail call ptr @proto_tree_add_uint(ptr noundef %9, i32 noundef %47, ptr noundef %0, i32 noundef %45, i32 noundef 4, i32 noundef %44)
  %.not37 = icmp eq i32 %44, 0
  br i1 %.not37, label %._crit_edge, label %.lr.ph

.lr.ph:                                           ; preds = %get_CDR_ulong.exit, %.lr.ph
  %.036 = phi i32 [ %49, %.lr.ph ], [ 0, %get_CDR_ulong.exit ]
  tail call fastcc void @decode_TaggedProfile(ptr noundef %0, ptr noundef %1, ptr noundef %9, ptr noundef %3, i32 noundef %4, i1 noundef zeroext %5, ptr noundef %24)
  %49 = add nuw i32 %.036, 1
  %exitcond.not = icmp eq i32 %49, %44
  br i1 %exitcond.not, label %._crit_edge, label %.lr.ph, !llvm.loop !20

._crit_edge:                                      ; preds = %.lr.ph, %get_CDR_ulong.exit
  ret void
}